; Function Attrs: nounwind uwtable
define range(i32 -21, 1) i32 @lsrkStep_AccessStepMem(ptr noundef %0, ptr noundef %1, ptr noundef writeonly captures(none) %2) local_unnamed_addr #0 {
  %4 = getelementptr inbounds nuw i8, ptr %0, i64 136
  %5 = load ptr, ptr %4, align 8, !tbaa !3
  %6 = icmp eq ptr %5, null
  br i1 %6, label %7, label %8

7:                                                ; preds = %3
  tail call void (ptr, i32, i32, ptr, ptr, ptr, ...) @arkProcessError(ptr noundef nonnull %0, i32 noundef -21, i32 noundef 2160, ptr noundef %1, ptr noundef nonnull @.str, ptr noundef nonnull @.str.39) #13
  br label %9

8:                                                ; preds = %3
  store ptr %5, ptr %2, align 8, !tbaa !100
  br label %9

9:                                                ; preds = %8, %7
  %.0 = phi i32 [ -21, %7 ], [ 0, %8 ]
  ret i32 %.0
}